target datalayout = "e-m:e-p270:32:32-p271:32:32-p272:64:64-i64:64-i128:128-f80:128-n8:16:32:64-S128"
target triple = "x86_64-pc-linux-gnu"

%struct.Abc_Cex_t_ = type { i32, i32, i32, i32, i32, [0 x i32] }

; Function Attrs: inlinehint nounwind uwtable
define internal i32 @Abc_BitWordNum(i32 noundef %0) #2 {
  %2 = alloca i32, align 4
  store i32 %0, ptr %2, align 4, !tbaa !3
  %3 = load i32, ptr %2, align 4, !tbaa !3
  %4 = ashr i32 %3, 5
  %5 = load i32, ptr %2, align 4, !tbaa !3
  %6 = and i32 %5, 31
  %7 = icmp sgt i32 %6, 0
  %8 = zext i1 %7 to i32
  %9 = add nsw i32 %4, %8
  ret i32 %9
}

; Function Attrs: inlinehint nounwind uwtable
define internal void @Abc_InfoSetBit(ptr noundef %0, i32 noundef %1) #2 {
  %3 = alloca ptr, align 8
  %4 = alloca i32, align 4
  store ptr %0, ptr %3, align 8, !tbaa !16
  store i32 %1, ptr %4, align 4, !tbaa !3
  %5 = load i32, ptr %4, align 4, !tbaa !3
  %6 = and i32 %5, 31
  %7 = shl i32 1, %6
  %8 = load ptr, ptr %3, align 8, !tbaa !16
  %9 = load i32, ptr %4, align 4, !tbaa !3
  %10 = ashr i32 %9, 5
  %11 = sext i32 %10 to i64
  %12 = getelementptr inbounds i32, ptr %8, i64 %11
  %13 = load i32, ptr %12, align 4, !tbaa !3
  %14 = or i32 %13, %7
  store i32 %14, ptr %12, align 4, !tbaa !3
  ret void
}

; Function Attrs: inlinehint nounwind uwtable
define internal i32 @Abc_InfoHasBit(ptr noundef %0, i32 noundef %1) #2 {
  %3 = alloca ptr, align 8
  %4 = alloca i32, align 4
  store ptr %0, ptr %3, align 8, !tbaa !16
  store i32 %1, ptr %4, align 4, !tbaa !3
  %5 = load ptr, ptr %3, align 8, !tbaa !16
  %6 = load i32, ptr %4, align 4, !tbaa !3
  %7 = ashr i32 %6, 5
  %8 = sext i32 %7 to i64
  %9 = getelementptr inbounds i32, ptr %5, i64 %8
  %10 = load i32, ptr %9, align 4, !tbaa !3
  %11 = load i32, ptr %4, align 4, !tbaa !3
  %12 = and i32 %11, 31
  %13 = shl i32 1, %12
  %14 = and i32 %10, %13
  %15 = icmp ugt i32 %14, 0
  %16 = zext i1 %15 to i32
  ret i32 %16
}

; Function Attrs: nounwind uwtable
define ptr @Abc_CexAlloc(i32 noundef %0, i32 noundef %1, i32 noundef %2) #0 {
  %4 = alloca i32, align 4
  %5 = alloca i32, align 4
  %6 = alloca i32, align 4
  %7 = alloca ptr, align 8
  %8 = alloca i32, align 4
  store i32 %0, ptr %4, align 4, !tbaa !3
  store i32 %1, ptr %5, align 4, !tbaa !3
  store i32 %2, ptr %6, align 4, !tbaa !3
  call void @llvm.lifetime.start.p0(i64 8, ptr %7) #8
  call void @llvm.lifetime.start.p0(i64 4, ptr %8) #8
  %9 = load i32, ptr %4, align 4, !tbaa !3
  %10 = load i32, ptr %5, align 4, !tbaa !3
  %11 = load i32, ptr %6, align 4, !tbaa !3
  %12 = mul nsw i32 %10, %11
  %13 = add nsw i32 %9, %12
  %14 = call i32 @Abc_BitWordNum(i32 noundef %13)
  store i32 %14, ptr %8, align 4, !tbaa !3
  %15 = load i32, ptr %8, align 4, !tbaa !3
  %16 = sext i32 %15 to i64
  %17 = mul i64 4, %16
  %18 = add i64 20, %17
  %19 = mul i64 1, %18
  %20 = call noalias ptr @malloc(i64 noundef %19) #9
  store ptr %20, ptr %7, align 8, !tbaa !7
  %21 = load ptr, ptr %7, align 8, !tbaa !7
  %22 = load i32, ptr %8, align 4, !tbaa !3
  %23 = sext i32 %22 to i64
  %24 = mul i64 4, %23
  %25 = add i64 20, %24
  call void @llvm.memset.p0.i64(ptr align 4 %21, i8 0, i64 %25, i1 false)
  %26 = load i32, ptr %4, align 4, !tbaa !3
  %27 = load ptr, ptr %7, align 8, !tbaa !7
  %28 = getelementptr inbounds nuw %struct.Abc_Cex_t_, ptr %27, i32 0, i32 2
  store i32 %26, ptr %28, align 4, !tbaa !10
  %29 = load i32, ptr %5, align 4, !tbaa !3
  %30 = load ptr, ptr %7, align 8, !tbaa !7
  %31 = getelementptr inbounds nuw %struct.Abc_Cex_t_, ptr %30, i32 0, i32 3
  store i32 %29, ptr %31, align 4, !tbaa !12
  %32 = load i32, ptr %4, align 4, !tbaa !3
  %33 = load i32, ptr %5, align 4, !tbaa !3
  %34 = load i32, ptr %6, align 4, !tbaa !3
  %35 = mul nsw i32 %33, %34
  %36 = add nsw i32 %32, %35
  %37 = load ptr, ptr %7, align 8, !tbaa !7
  %38 = getelementptr inbounds nuw %struct.Abc_Cex_t_, ptr %37, i32 0, i32 4
  store i32 %36, ptr %38, align 4, !tbaa !13
  %39 = load ptr, ptr %7, align 8, !tbaa !7
  call void @llvm.lifetime.end.p0(i64 4, ptr %8) #8
  call void @llvm.lifetime.end.p0(i64 8, ptr %7) #8
  ret ptr %39
}

; Function Attrs: nounwind uwtable
define ptr @Abc_CexDup(ptr noundef %0, i32 noundef %1) #0 {
  %3 = alloca ptr, align 8
  %4 = alloca ptr, align 8
  %5 = alloca i32, align 4
  %6 = alloca ptr, align 8
  %7 = alloca i32, align 4
  %8 = alloca i32, align 4
  store ptr %0, ptr %4, align 8, !tbaa !7
  store i32 %1, ptr %5, align 4, !tbaa !3
  call void @llvm.lifetime.start.p0(i64 8, ptr %6) #8
  call void @llvm.lifetime.start.p0(i64 4, ptr %7) #8
  %9 = load ptr, ptr %4, align 8, !tbaa !7
  %10 = icmp eq ptr %9, inttoptr (i64 1 to ptr)
  br i1 %10, label %11, label %13

11:                                               ; preds = %2
  %12 = load ptr, ptr %4, align 8, !tbaa !7
  store ptr %12, ptr %3, align 8
  store i32 1, ptr %8, align 4
  br label %75

13:                                               ; preds = %2
  %14 = load i32, ptr %5, align 4, !tbaa !3
  %15 = icmp eq i32 %14, -1
  br i1 %15, label %16, label %20

16:                                               ; preds = %13
  %17 = load ptr, ptr %4, align 8, !tbaa !7
  %18 = getelementptr inbounds nuw %struct.Abc_Cex_t_, ptr %17, i32 0, i32 2
  %19 = load i32, ptr %18, align 4, !tbaa !10
  store i32 %19, ptr %5, align 4, !tbaa !3
  br label %20

20:                                               ; preds = %16, %13
  %21 = load i32, ptr %5, align 4, !tbaa !3
  %22 = load ptr, ptr %4, align 8, !tbaa !7
  %23 = getelementptr inbounds nuw %struct.Abc_Cex_t_, ptr %22, i32 0, i32 3
  %24 = load i32, ptr %23, align 4, !tbaa !12
  %25 = load ptr, ptr %4, align 8, !tbaa !7
  %26 = getelementptr inbounds nuw %struct.Abc_Cex_t_, ptr %25, i32 0, i32 1
  %27 = load i32, ptr %26, align 4, !tbaa !15
  %28 = add nsw i32 %27, 1
  %29 = call ptr @Abc_CexAlloc(i32 noundef %21, i32 noundef %24, i32 noundef %28)
  store ptr %29, ptr %6, align 8, !tbaa !7
  %30 = load ptr, ptr %4, align 8, !tbaa !7
  %31 = getelementptr inbounds nuw %struct.Abc_Cex_t_, ptr %30, i32 0, i32 0
  %32 = load i32, ptr %31, align 4, !tbaa !14
  %33 = load ptr, ptr %6, align 8, !tbaa !7
  %34 = getelementptr inbounds nuw %struct.Abc_Cex_t_, ptr %33, i32 0, i32 0
  store i32 %32, ptr %34, align 4, !tbaa !14
  %35 = load ptr, ptr %4, align 8, !tbaa !7
  %36 = getelementptr inbounds nuw %struct.Abc_Cex_t_, ptr %35, i32 0, i32 1
  %37 = load i32, ptr %36, align 4, !tbaa !15
  %38 = load ptr, ptr %6, align 8, !tbaa !7
  %39 = getelementptr inbounds nuw %struct.Abc_Cex_t_, ptr %38, i32 0, i32 1
  store i32 %37, ptr %39, align 4, !tbaa !15
  %40 = load ptr, ptr %4, align 8, !tbaa !7
  %41 = getelementptr inbounds nuw %struct.Abc_Cex_t_, ptr %40, i32 0, i32 2
  %42 = load i32, ptr %41, align 4, !tbaa !10
  store i32 %42, ptr %7, align 4, !tbaa !3
  br label %43

43:                                               ; preds = %70, %20
  %44 = load i32, ptr %7, align 4, !tbaa !3
  %45 = load ptr, ptr %4, align 8, !tbaa !7
  %46 = getelementptr inbounds nuw %struct.Abc_Cex_t_, ptr %45, i32 0, i32 4
  %47 = load i32, ptr %46, align 4, !tbaa !13
  %48 = icmp slt i32 %44, %47
  br i1 %48, label %49, label %73

49:                                               ; preds = %43
  %50 = load ptr, ptr %4, align 8, !tbaa !7
  %51 = getelementptr inbounds nuw %struct.Abc_Cex_t_, ptr %50, i32 0, i32 5
  %52 = getelementptr inbounds [0 x i32], ptr %51, i64 0, i64 0
  %53 = load i32, ptr %7, align 4, !tbaa !3
  %54 = call i32 @Abc_InfoHasBit(ptr noundef %52, i32 noundef %53)
  %55 = icmp ne i32 %54, 0
  br i1 %55, label %56, label %69

56:                                               ; preds = %49
  %57 = load ptr, ptr %6, align 8, !tbaa !7
  %58 = getelementptr inbounds nuw %struct.Abc_Cex_t_, ptr %57, i32 0, i32 5
  %59 = getelementptr inbounds [0 x i32], ptr %58, i64 0, i64 0
  %60 = load ptr, ptr %6, align 8, !tbaa !7
  %61 = getelementptr inbounds nuw %struct.Abc_Cex_t_, ptr %60, i32 0, i32 2
  %62 = load i32, ptr %61, align 4, !tbaa !10
  %63 = load i32, ptr %7, align 4, !tbaa !3
  %64 = add nsw i32 %62, %63
  %65 = load ptr, ptr %4, align 8, !tbaa !7
  %66 = getelementptr inbounds nuw %struct.Abc_Cex_t_, ptr %65, i32 0, i32 2
  %67 = load i32, ptr %66, align 4, !tbaa !10
  %68 = sub nsw i32 %64, %67
  call void @Abc_InfoSetBit(ptr noundef %59, i32 noundef %68)
  br label %69

69:                                               ; preds = %56, %49
  br label %70

70:                                               ; preds = %69
  %71 = load i32, ptr %7, align 4, !tbaa !3
  %72 = add nsw i32 %71, 1
  store i32 %72, ptr %7, align 4, !tbaa !3
  br label %43, !llvm.loop !21

73:                                               ; preds = %43
  %74 = load ptr, ptr %6, align 8, !tbaa !7
  store ptr %74, ptr %3, align 8
  store i32 1, ptr %8, align 4
  br label %75

75:                                               ; preds = %73, %11
  call void @llvm.lifetime.end.p0(i64 4, ptr %7) #8
  call void @llvm.lifetime.end.p0(i64 8, ptr %6) #8
  %76 = load ptr, ptr %3, align 8
  ret ptr %76
}

; Function Attrs: nounwind uwtable
define ptr @Abc_CexTransformPhase(ptr noundef %0, i32 noundef %1, i32 noundef %2, i32 noundef %3) #0 {
  %5 = alloca ptr, align 8
  %6 = alloca i32, align 4
  %7 = alloca i32, align 4
  %8 = alloca i32, align 4
  %9 = alloca ptr, align 8
  %10 = alloca i32, align 4
  %11 = alloca i32, align 4
  store ptr %0, ptr %5, align 8, !tbaa !7
  store i32 %1, ptr %6, align 4, !tbaa !3
  store i32 %2, ptr %7, align 4, !tbaa !3
  store i32 %3, ptr %8, align 4, !tbaa !3
  call void @llvm.lifetime.start.p0(i64 8, ptr %9) #8
  call void @llvm.lifetime.start.p0(i64 4, ptr %10) #8
  %12 = load ptr, ptr %5, align 8, !tbaa !7
  %13 = getelementptr inbounds nuw %struct.Abc_Cex_t_, ptr %12, i32 0, i32 3
  %14 = load i32, ptr %13, align 4, !tbaa !12
  %15 = load i32, ptr %6, align 4, !tbaa !3
  %16 = sdiv i32 %14, %15
  store i32 %16, ptr %10, align 4, !tbaa !3
  call void @llvm.lifetime.start.p0(i64 4, ptr %11) #8
  %17 = load i32, ptr %7, align 4, !tbaa !3
  %18 = load i32, ptr %10, align 4, !tbaa !3
  %19 = mul nsw i32 %17, %18
  store i32 %19, ptr %11, align 4, !tbaa !3
  %20 = load ptr, ptr %5, align 8, !tbaa !7
  %21 = load i32, ptr %8, align 4, !tbaa !3
  %22 = call ptr @Abc_CexDup(ptr noundef %20, i32 noundef %21)
  store ptr %22, ptr %9, align 8, !tbaa !7
  %23 = load i32, ptr %6, align 4, !tbaa !3
  %24 = load ptr, ptr %9, align 8, !tbaa !7
  %25 = getelementptr inbounds nuw %struct.Abc_Cex_t_, ptr %24, i32 0, i32 3
  store i32 %23, ptr %25, align 4, !tbaa !12
  %26 = load ptr, ptr %9, align 8, !tbaa !7
  %27 = getelementptr inbounds nuw %struct.Abc_Cex_t_, ptr %26, i32 0, i32 0
  store i32 -1, ptr %27, align 4, !tbaa !14
  %28 = load ptr, ptr %5, align 8, !tbaa !7
  %29 = getelementptr inbounds nuw %struct.Abc_Cex_t_, ptr %28, i32 0, i32 1
  %30 = load i32, ptr %29, align 4, !tbaa !15
  %31 = add nsw i32 %30, 1
  %32 = load i32, ptr %10, align 4, !tbaa !3
  %33 = mul nsw i32 %31, %32
  %34 = sub nsw i32 %33, 1
  %35 = load ptr, ptr %9, align 8, !tbaa !7
  %36 = getelementptr inbounds nuw %struct.Abc_Cex_t_, ptr %35, i32 0, i32 1
  store i32 %34, ptr %36, align 4, !tbaa !15
  %37 = load ptr, ptr %5, align 8, !tbaa !7
  %38 = getelementptr inbounds nuw %struct.Abc_Cex_t_, ptr %37, i32 0, i32 4
  %39 = load i32, ptr %38, align 4, !tbaa !13
  %40 = load ptr, ptr %9, align 8, !tbaa !7
  %41 = getelementptr inbounds nuw %struct.Abc_Cex_t_, ptr %40, i32 0, i32 4
  store i32 %39, ptr %41, align 4, !tbaa !13
  %42 = load ptr, ptr %9, align 8, !tbaa !7
  call void @llvm.lifetime.end.p0(i64 4, ptr %11) #8
  call void @llvm.lifetime.end.p0(i64 4, ptr %10) #8
  call void @llvm.lifetime.end.p0(i64 8, ptr %9) #8
  ret ptr %42
}