; Function Attrs: nofree nounwind uwtable
define noundef ptr @Abc_CexTransformPhase(ptr noundef readonly %0, i32 noundef %1, i32 noundef %2, i32 noundef %3) local_unnamed_addr #4 {
  %5 = getelementptr inbounds nuw i8, ptr %0, i64 12
  %6 = load i32, ptr %5, align 4, !tbaa !8
  %7 = icmp eq ptr %0, inttoptr (i64 1 to ptr)
  br i1 %7, label %.Abc_CexDup.exit_crit_edge, label %8

.Abc_CexDup.exit_crit_edge:                       ; preds = %4
  %.phi.trans.insert = getelementptr inbounds nuw i8, ptr %0, i64 4
  %.pre = load i32, ptr %.phi.trans.insert, align 4, !tbaa !11
  %.phi.trans.insert14 = getelementptr inbounds nuw i8, ptr %0, i64 16
  %.pre15 = load i32, ptr %.phi.trans.insert14, align 4, !tbaa !9
  %.pre16 = add nsw i32 %.pre, 1
  br label %Abc_CexDup.exit

8:                                                ; preds = %4
  %9 = icmp eq i32 %3, -1
  %10 = getelementptr inbounds nuw i8, ptr %0, i64 8
  %11 = load i32, ptr %10, align 4, !tbaa !3
  %..i = select i1 %9, i32 %11, i32 %3
  %12 = getelementptr inbounds nuw i8, ptr %0, i64 4
  %13 = load i32, ptr %12, align 4, !tbaa !11
  %14 = add nsw i32 %13, 1
  %15 = mul nsw i32 %14, %6
  %16 = add nsw i32 %15, %..i
  %17 = ashr i32 %16, 5
  %18 = and i32 %16, 31
  %19 = icmp ne i32 %18, 0
  %20 = zext i1 %19 to i32
  %21 = add nsw i32 %17, %20
  %22 = sext i32 %21 to i64
  %23 = shl nsw i64 %22, 2
  %24 = add nsw i64 %23, 20
  %calloc.i.i = tail call ptr @calloc(i64 1, i64 %24)
  %25 = getelementptr inbounds nuw i8, ptr %calloc.i.i, i64 8
  store i32 %..i, ptr %25, align 4, !tbaa !3
  %26 = getelementptr inbounds nuw i8, ptr %calloc.i.i, i64 12
  store i32 %6, ptr %26, align 4, !tbaa !8
  %27 = getelementptr inbounds nuw i8, ptr %calloc.i.i, i64 16
  store i32 %16, ptr %27, align 4, !tbaa !9
  %28 = load i32, ptr %0, align 4, !tbaa !10
  store i32 %28, ptr %calloc.i.i, align 4, !tbaa !10
  %29 = getelementptr inbounds nuw i8, ptr %calloc.i.i, i64 4
  store i32 %13, ptr %29, align 4, !tbaa !11
  %30 = getelementptr inbounds nuw i8, ptr %0, i64 16
  %31 = load i32, ptr %30, align 4, !tbaa !9
  %32 = icmp slt i32 %11, %31
  br i1 %32, label %.lr.ph.i, label %Abc_CexDup.exit

.lr.ph.i:                                         ; preds = %8
  %33 = getelementptr inbounds nuw i8, ptr %0, i64 20
  %34 = getelementptr inbounds nuw i8, ptr %calloc.i.i, i64 20
  br label %35

35:                                               ; preds = %54, %.lr.ph.i
  %.026.i = phi i32 [ %11, %.lr.ph.i ], [ %55, %54 ]
  %36 = ashr i32 %.026.i, 5
  %37 = sext i32 %36 to i64
  %38 = getelementptr inbounds i32, ptr %33, i64 %37
  %39 = load i32, ptr %38, align 4, !tbaa !12
  %40 = and i32 %.026.i, 31
  %41 = shl nuw i32 1, %40
  %42 = and i32 %41, %39
  %.not.i = icmp eq i32 %42, 0
  br i1 %.not.i, label %54, label %43

43:                                               ; preds = %35
  %44 = load i32, ptr %25, align 4, !tbaa !3
  %45 = sub i32 %.026.i, %11
  %46 = add i32 %44, %45
  %47 = and i32 %46, 31
  %48 = shl nuw i32 1, %47
  %49 = ashr i32 %46, 5
  %50 = sext i32 %49 to i64
  %51 = getelementptr inbounds i32, ptr %34, i64 %50
  %52 = load i32, ptr %51, align 4, !tbaa !12
  %53 = or i32 %48, %52
  store i32 %53, ptr %51, align 4, !tbaa !12
  br label %54

54:                                               ; preds = %43, %35
  %55 = add nsw i32 %.026.i, 1
  %exitcond.not.i = icmp eq i32 %55, %31
  br i1 %exitcond.not.i, label %Abc_CexDup.exit, label %35, !llvm.loop !16

Abc_CexDup.exit:                                  ; preds = %54, %.Abc_CexDup.exit_crit_edge, %8
  %.pre-phi = phi i32 [ %.pre16, %.Abc_CexDup.exit_crit_edge ], [ %14, %8 ], [ %14, %54 ]
  %56 = phi i32 [ %.pre15, %.Abc_CexDup.exit_crit_edge ], [ %31, %8 ], [ %31, %54 ]
  %.022.i = phi ptr [ inttoptr (i64 1 to ptr), %.Abc_CexDup.exit_crit_edge ], [ %calloc.i.i, %8 ], [ %calloc.i.i, %54 ]
  %57 = sdiv i32 %6, %1
  %58 = getelementptr inbounds nuw i8, ptr %.022.i, i64 12
  store i32 %1, ptr %58, align 4, !tbaa !8
  store i32 -1, ptr %.022.i, align 4, !tbaa !10
  %59 = mul nsw i32 %.pre-phi, %57
  %60 = add nsw i32 %59, -1
  %61 = getelementptr inbounds nuw i8, ptr %.022.i, i64 4
  store i32 %60, ptr %61, align 4, !tbaa !11
  %62 = getelementptr inbounds nuw i8, ptr %.022.i, i64 16
  store i32 %56, ptr %62, align 4, !tbaa !9
  ret ptr %.022.i
}